Certificate:
    Data:
        Version: 3 (0x2)
        Serial Number: 2 (0x2)
        Signature Algorithm: md5WithRSAEncryption
        Issuer: C=CN, ST=BJ, O=Tao Studio, OU=For Test Only, CN=Tao Super CA 1
        Validity
            Not Before: Nov 19 01:53:36 2002 GMT
            Not After : Nov 18 01:53:36 2004 GMT
        Subject: CN=Tao Test Sign/Email=zhang_tao@itrus.com.cn
        Subject Public Key Info:
            Public Key Algorithm: rsaEncryption
            RSA Public Key: (1024 bit)
                Modulus (1024 bit):
                    00:af:56:48:b3:0b:a0:b1:ac:04:1b:5f:e3:3c:3f:
                    e4:fb:62:66:75:2d:12:be:a0:65:ac:64:b4:4c:1f:
                    d1:37:1a:1f:74:b2:67:72:98:81:72:97:5b:5b:5e:
                    14:5f:79:d0:7c:23:a3:22:4f:0e:6c:b5:d9:7e:a7:
                    1f:90:c9:4b:24:34:c8:d1:4f:bd:69:59:f5:ae:d7:
                    cc:c9:eb:57:c4:2d:04:35:5d:73:e1:9a:b6:49:54:
                    03:b3:02:8c:e9:28:d4:2f:83:de:6f:36:dc:c2:55:
                    75:3a:47:05:d7:1a:4b:ec:18:3a:35:36:fe:0b:5d:
                    c2:e6:d8:0b:87:6f:71:d6:9d
                Exponent: 65537 (0x10001)
        X509v3 extensions:
            X509v3 Subject Alternative Name: 
                email:zhang_tao@itrus.com.cn
            X509v3 Basic Constraints: critical
                CA:FALSE
            X509v3 Authority Key Identifier: 
                keyid:40:05:0B:0E:E5:ED:FC:17:FC:4A:FE:50:F4:EC:AF:27:A2:5B:6A:EE

            X509v3 Extended Key Usage: 
                TLS Web Client Authentication, E-mail Protection
    Signature Algorithm: md5WithRSAEncryption
        29:73:bc:d0:3e:01:9c:a5:59:5e:cd:42:97:7f:33:15:cd:c3:
        b5:22:50:36:86:50:c7:46:3c:6f:34:b9:b9:06:70:e5:d7:50:
        5b:2a:e8:a9:19:e3:02:23:66:95:31:8f:f8:37:69:b3:8b:79:
        41:5e:8f:87:41:db:e6:d6:a1:f5:47:88:f8:24:01:89:8c:b3:
        91:1a:98:58:b6:c3:4c:fd:79:6e:23:ad:63:13:d3:e8:1b:d5:
        1b:56:bc:e2:8e:26:b7:be:98:ee:03:16:ab:86:21:fc:52:6e:
        72:ec:9b:4e:4b:ac:e4:1c:57:18:51:13:db:f6:6c:6a:83:82:
        c6:f7
-----BEGIN CERTIFICATE-----
MIICiDCCAfGgAwIBAgIBAjANBgkqhkiG9w0BAQQFADBgMQswCQYDVQQGEwJDTjEL
MAkGA1UECBMCQkoxEzARBgNVBAoTClRhbyBTdHVkaW8xFjAUBgNVBAsTDUZvciBU
ZXN0IE9ubHkxFzAVBgNVBAMTDlRhbyBTdXBlciBDQSAxMB4XDTAyMTExOTAxNTMz
NloXDTA0MTExODAxNTMzNlowPzEWMBQGA1UEAxMNVGFvIFRlc3QgU2lnbjElMCMG
CSqGSIb3DQEJARYWemhhbmdfdGFvQGl0cnVzLmNvbS5jbjCBnzANBgkqhkiG9w0B
AQEFAAOBjQAwgYkCgYEAr1ZIswugsawEG1/jPD/k+2JmdS0SvqBlrGS0TB/RNxof
dLJncpiBcpdbW14UX3nQfCOjIk8ObLXZfqcfkMlLJDTI0U+9aVn1rtfMyetXxC0E
NV1z4Zq2SVQDswKM6SjUL4PebzbcwlV1OkcF1xpL7Bg6NTb+C13C5tgLh29x1p0C
AwEAAaNzMHEwIQYDVR0RBBowGIEWemhhbmdfdGFvQGl0cnVzLmNvbS5jbjAMBgNV
HRMBAf8EAjAAMB8GA1UdIwQYMBaAFEAFCw7l7fwX/Er+UPTsryeiW2ruMB0GA1Ud
JQQWMBQGCCsGAQUFBwMCBggrBgEFBQcDBDANBgkqhkiG9w0BAQQFAAOBgQApc7zQ
PgGcpVlezUKXfzMVzcO1IlA2hlDHRjxvNLm5BnDl11BbKuipGeMCI2aVMY/4N2mz
i3lBXo+HQdvm1qH1R4j4JAGJjLORGphYtsNM/XluI61jE9PoG9UbVrzijia3vpju
AxarhiH8Um5y7JtOS6zkHFcYURPb9mxqg4LG9w==
-----END CERTIFICATE-----
